target datalayout = "e-m:e-p270:32:32-p271:32:32-p272:64:64-i64:64-i128:128-f80:128-n8:16:32:64-S128"
target triple = "x86_64-pc-linux-gnu"

%struct._dcerpc_info = type { ptr, i32, i64, i8, i32, i32, i32, i32, i32, i32, i32, i32, i32, i32, ptr, ptr, ptr }

@hf_eventlog_Record = internal global i32 -1, align 4
@hf_eventlog_Record_length = internal global i32 -1, align 4

; Function Attrs: nounwind uwtable
define internal i32 @eventlog_dissect_element_ReadEventLogW_data_(ptr noundef %0, i32 noundef %1, ptr noundef %2, ptr noundef %3, ptr noundef %4, ptr noundef %5) #0 {
  %7 = alloca i32, align 4
  %8 = alloca ptr, align 8
  %9 = alloca i32, align 4
  %10 = alloca ptr, align 8
  %11 = alloca ptr, align 8
  %12 = alloca ptr, align 8
  %13 = alloca ptr, align 8
  %14 = alloca i32, align 4
  %15 = alloca ptr, align 8
  store ptr %0, ptr %8, align 8
  store i32 %1, ptr %9, align 4
  store ptr %2, ptr %10, align 8
  store ptr %3, ptr %11, align 8
  store ptr %4, ptr %12, align 8
  store ptr %5, ptr %13, align 8
  %16 = load ptr, ptr %12, align 8
  %17 = getelementptr inbounds %struct._dcerpc_info, ptr %16, i32 0, i32 4
  %18 = load i32, ptr %17, align 4
  %19 = icmp ne i32 %18, 0
  br i1 %19, label %20, label %22

20:                                               ; preds = %6
  %21 = load i32, ptr %9, align 4
  store i32 %21, ptr %7, align 4
  br label %59

22:                                               ; preds = %6
  %23 = load ptr, ptr %8, align 8
  %24 = load i32, ptr %9, align 4
  %25 = load ptr, ptr %10, align 8
  %26 = load ptr, ptr %11, align 8
  %27 = load ptr, ptr %12, align 8
  %28 = load ptr, ptr %13, align 8
  %29 = load i32, ptr @hf_eventlog_Record_length, align 4
  %30 = call i32 @dissect_ndr_uint32(ptr noundef %23, i32 noundef %24, ptr noundef %25, ptr noundef %26, ptr noundef %27, ptr noundef %28, i32 noundef %29, ptr noundef %14)
  store i32 %30, ptr %9, align 4
  %31 = load ptr, ptr %8, align 8
  %32 = load i32, ptr %9, align 4
  %33 = load i32, ptr %14, align 4
  %34 = load ptr, ptr %8, align 8
  %35 = load i32, ptr %9, align 4
  %36 = call i32 @tvb_captured_length_remaining(ptr noundef %34, i32 noundef %35)
  %37 = icmp slt i32 %33, %36
  br i1 %37, label %38, label %40

38:                                               ; preds = %22
  %39 = load i32, ptr %14, align 4
  br label %44

40:                                               ; preds = %22
  %41 = load ptr, ptr %8, align 8
  %42 = load i32, ptr %9, align 4
  %43 = call i32 @tvb_captured_length_remaining(ptr noundef %41, i32 noundef %42)
  br label %44

44:                                               ; preds = %40, %38
  %45 = phi i32 [ %39, %38 ], [ %43, %40 ]
  %46 = load i32, ptr %14, align 4
  %47 = call ptr @tvb_new_subset_length_caplen(ptr noundef %31, i32 noundef %32, i32 noundef %45, i32 noundef %46)
  store ptr %47, ptr %15, align 8
  %48 = load ptr, ptr %15, align 8
  %49 = load ptr, ptr %10, align 8
  %50 = load ptr, ptr %11, align 8
  %51 = load ptr, ptr %12, align 8
  %52 = load ptr, ptr %13, align 8
  %53 = load i32, ptr @hf_eventlog_Record, align 4
  %54 = call i32 @eventlog_dissect_struct_Record(ptr noundef %48, i32 noundef 0, ptr noundef %49, ptr noundef %50, ptr noundef %51, ptr noundef %52, i32 noundef %53, i32 noundef 0)
  %55 = load i32, ptr %14, align 4
  %56 = load i32, ptr %9, align 4
  %57 = add i32 %56, %55
  store i32 %57, ptr %9, align 4
  %58 = load i32, ptr %9, align 4
  store i32 %58, ptr %7, align 4
  br label %59

59:                                               ; preds = %44, %20
  %60 = load i32, ptr %7, align 4
  ret i32 %60
}