; Function Attrs: nounwind uwtable
define internal i32 @eventlog_dissect_element_ReadEventLogW_data_(ptr noundef %0, i32 noundef %1, ptr noundef %2, ptr noundef %3, ptr noundef %4, ptr noundef %5) #0 {
  %7 = alloca i32, align 4
  %8 = getelementptr inbounds nuw i8, ptr %4, i64 28
  %9 = load i32, ptr %8, align 4
  %.not = icmp eq i32 %9, 0
  br i1 %.not, label %10, label %28

10:                                               ; preds = %6
  %11 = load i32, ptr @hf_eventlog_Record_length, align 4
  %12 = call i32 @dissect_ndr_uint32(ptr noundef %0, i32 noundef %1, ptr noundef %2, ptr noundef %3, ptr noundef nonnull %4, ptr noundef %5, i32 noundef %11, ptr noundef nonnull %7) #4
  %13 = load i32, ptr %7, align 4
  %14 = call i32 @tvb_captured_length_remaining(ptr noundef %0, i32 noundef %12) #4
  %15 = icmp slt i32 %13, %14
  br i1 %15, label %16, label %18

16:                                               ; preds = %10
  %17 = load i32, ptr %7, align 4
  br label %20

18:                                               ; preds = %10
  %19 = call i32 @tvb_captured_length_remaining(ptr noundef %0, i32 noundef %12) #4
  %.pre = load i32, ptr %7, align 4
  br label %20

20:                                               ; preds = %18, %16
  %21 = phi i32 [ %17, %16 ], [ %.pre, %18 ]
  %22 = phi i32 [ %17, %16 ], [ %19, %18 ]
  %23 = call ptr @tvb_new_subset_length_caplen(ptr noundef %0, i32 noundef %12, i32 noundef %22, i32 noundef %21) #4
  %24 = load i32, ptr @hf_eventlog_Record, align 4
  %25 = call i32 @eventlog_dissect_struct_Record(ptr noundef %23, i32 noundef 0, ptr noundef %2, ptr noundef %3, ptr noundef nonnull %4, ptr noundef %5, i32 noundef %24, i32 poison)
  %26 = load i32, ptr %7, align 4
  %27 = add i32 %26, %12
  br label %28

28:                                               ; preds = %6, %20
  %.0 = phi i32 [ %27, %20 ], [ %1, %6 ]
  ret i32 %.0
}